target datalayout = "e-m:e-p270:32:32-p271:32:32-p272:64:64-i64:64-i128:128-f80:128-n8:16:32:64-S128"
target triple = "x86_64-pc-linux-gnu"

%struct.index_entry_offset_table = type { i32, [0 x %struct.index_entry_offset] }
%struct.index_entry_offset = type { i32, i32 }
%struct.load_cache_entries_thread_data = type { i64, ptr, ptr, i32, ptr, ptr, i32, i32, i64 }

; Function Attrs: nounwind uwtable
define internal ptr @load_cache_entries_thread(ptr noundef %0) #0 {
  %2 = alloca ptr, align 8
  %3 = alloca ptr, align 8
  %4 = alloca i32, align 4
  store ptr %0, ptr %2, align 8, !tbaa !64
  call void @llvm.lifetime.start.p0(i64 8, ptr %3) #12
  %5 = load ptr, ptr %2, align 8, !tbaa !64
  store ptr %5, ptr %3, align 8, !tbaa !142
  call void @llvm.lifetime.start.p0(i64 4, ptr %4) #12
  %6 = load ptr, ptr %3, align 8, !tbaa !142
  %7 = getelementptr inbounds nuw %struct.load_cache_entries_thread_data, ptr %6, i32 0, i32 6
  %8 = load i32, ptr %7, align 8, !tbaa !149
  store i32 %8, ptr %4, align 4, !tbaa !9
  br label %9

9:                                                ; preds = %69, %1
  %10 = load i32, ptr %4, align 4, !tbaa !9
  %11 = load ptr, ptr %3, align 8, !tbaa !142
  %12 = getelementptr inbounds nuw %struct.load_cache_entries_thread_data, ptr %11, i32 0, i32 6
  %13 = load i32, ptr %12, align 8, !tbaa !149
  %14 = load ptr, ptr %3, align 8, !tbaa !142
  %15 = getelementptr inbounds nuw %struct.load_cache_entries_thread_data, ptr %14, i32 0, i32 7
  %16 = load i32, ptr %15, align 4, !tbaa !150
  %17 = add nsw i32 %13, %16
  %18 = icmp slt i32 %10, %17
  br i1 %18, label %19, label %72

19:                                               ; preds = %9
  %20 = load ptr, ptr %3, align 8, !tbaa !142
  %21 = getelementptr inbounds nuw %struct.load_cache_entries_thread_data, ptr %20, i32 0, i32 1
  %22 = load ptr, ptr %21, align 8, !tbaa !144
  %23 = load ptr, ptr %3, align 8, !tbaa !142
  %24 = getelementptr inbounds nuw %struct.load_cache_entries_thread_data, ptr %23, i32 0, i32 2
  %25 = load ptr, ptr %24, align 8, !tbaa !152
  %26 = load ptr, ptr %3, align 8, !tbaa !142
  %27 = getelementptr inbounds nuw %struct.load_cache_entries_thread_data, ptr %26, i32 0, i32 3
  %28 = load i32, ptr %27, align 8, !tbaa !146
  %29 = load ptr, ptr %3, align 8, !tbaa !142
  %30 = getelementptr inbounds nuw %struct.load_cache_entries_thread_data, ptr %29, i32 0, i32 5
  %31 = load ptr, ptr %30, align 8, !tbaa !148
  %32 = getelementptr inbounds nuw %struct.index_entry_offset_table, ptr %31, i32 0, i32 1
  %33 = load i32, ptr %4, align 4, !tbaa !9
  %34 = sext i32 %33 to i64
  %35 = getelementptr inbounds [0 x %struct.index_entry_offset], ptr %32, i64 0, i64 %34
  %36 = getelementptr inbounds nuw %struct.index_entry_offset, ptr %35, i32 0, i32 1
  %37 = load i32, ptr %36, align 4, !tbaa !139
  %38 = load ptr, ptr %3, align 8, !tbaa !142
  %39 = getelementptr inbounds nuw %struct.load_cache_entries_thread_data, ptr %38, i32 0, i32 4
  %40 = load ptr, ptr %39, align 8, !tbaa !147
  %41 = load ptr, ptr %3, align 8, !tbaa !142
  %42 = getelementptr inbounds nuw %struct.load_cache_entries_thread_data, ptr %41, i32 0, i32 5
  %43 = load ptr, ptr %42, align 8, !tbaa !148
  %44 = getelementptr inbounds nuw %struct.index_entry_offset_table, ptr %43, i32 0, i32 1
  %45 = load i32, ptr %4, align 4, !tbaa !9
  %46 = sext i32 %45 to i64
  %47 = getelementptr inbounds [0 x %struct.index_entry_offset], ptr %44, i64 0, i64 %46
  %48 = getelementptr inbounds nuw %struct.index_entry_offset, ptr %47, i32 0, i32 0
  %49 = load i32, ptr %48, align 4, !tbaa !137
  %50 = sext i32 %49 to i64
  %51 = call i64 @load_cache_entry_block(ptr noundef %22, ptr noundef %25, i32 noundef %28, i32 noundef %37, ptr noundef %40, i64 noundef %50, ptr noundef null)
  %52 = load ptr, ptr %3, align 8, !tbaa !142
  %53 = getelementptr inbounds nuw %struct.load_cache_entries_thread_data, ptr %52, i32 0, i32 8
  %54 = load i64, ptr %53, align 8, !tbaa !156
  %55 = add i64 %54, %51
  store i64 %55, ptr %53, align 8, !tbaa !156
  %56 = load ptr, ptr %3, align 8, !tbaa !142
  %57 = getelementptr inbounds nuw %struct.load_cache_entries_thread_data, ptr %56, i32 0, i32 5
  %58 = load ptr, ptr %57, align 8, !tbaa !148
  %59 = getelementptr inbounds nuw %struct.index_entry_offset_table, ptr %58, i32 0, i32 1
  %60 = load i32, ptr %4, align 4, !tbaa !9
  %61 = sext i32 %60 to i64
  %62 = getelementptr inbounds [0 x %struct.index_entry_offset], ptr %59, i64 0, i64 %61
  %63 = getelementptr inbounds nuw %struct.index_entry_offset, ptr %62, i32 0, i32 1
  %64 = load i32, ptr %63, align 4, !tbaa !139
  %65 = load ptr, ptr %3, align 8, !tbaa !142
  %66 = getelementptr inbounds nuw %struct.load_cache_entries_thread_data, ptr %65, i32 0, i32 3
  %67 = load i32, ptr %66, align 8, !tbaa !146
  %68 = add nsw i32 %67, %64
  store i32 %68, ptr %66, align 8, !tbaa !146
  br label %69

69:                                               ; preds = %19
  %70 = load i32, ptr %4, align 4, !tbaa !9
  %71 = add nsw i32 %70, 1
  store i32 %71, ptr %4, align 4, !tbaa !9
  br label %9, !llvm.loop !275

72:                                               ; preds = %9
  call void @llvm.lifetime.end.p0(i64 4, ptr %4) #12
  call void @llvm.lifetime.end.p0(i64 8, ptr %3) #12
  ret ptr null
}