; Function Attrs: nounwind uwtable
define internal noalias noundef ptr @load_cache_entries_thread(ptr noundef captures(none) %0) #0 {
  %2 = getelementptr inbounds nuw i8, ptr %0, i64 48
  %3 = getelementptr inbounds nuw i8, ptr %0, i64 52
  %4 = load i32, ptr %3, align 4, !tbaa !124
  %5 = icmp sgt i32 %4, 0
  br i1 %5, label %.lr.ph, label %._crit_edge

.lr.ph:                                           ; preds = %1
  %6 = load i32, ptr %2, align 8, !tbaa !123
  %7 = getelementptr inbounds nuw i8, ptr %0, i64 8
  %8 = getelementptr inbounds nuw i8, ptr %0, i64 16
  %9 = getelementptr inbounds nuw i8, ptr %0, i64 24
  %10 = getelementptr inbounds nuw i8, ptr %0, i64 40
  %11 = getelementptr inbounds nuw i8, ptr %0, i64 32
  %12 = getelementptr inbounds nuw i8, ptr %0, i64 56
  %13 = sext i32 %6 to i64
  %.pre = load i32, ptr %9, align 8, !tbaa !120
  %.pre19 = load ptr, ptr %10, align 8, !tbaa !122
  br label %14

14:                                               ; preds = %.lr.ph, %14
  %15 = phi ptr [ %.pre19, %.lr.ph ], [ %29, %14 ]
  %16 = phi i32 [ %.pre, %.lr.ph ], [ %34, %14 ]
  %indvars.iv = phi i64 [ %13, %.lr.ph ], [ %indvars.iv.next, %14 ]
  %17 = load ptr, ptr %7, align 8, !tbaa !117
  %18 = load ptr, ptr %8, align 8, !tbaa !126
  %19 = getelementptr inbounds nuw i8, ptr %15, i64 4
  %20 = getelementptr inbounds [0 x %struct.index_entry_offset], ptr %19, i64 0, i64 %indvars.iv
  %21 = getelementptr inbounds nuw i8, ptr %20, i64 4
  %22 = load i32, ptr %21, align 4, !tbaa !114
  %23 = load ptr, ptr %11, align 8, !tbaa !121
  %24 = load i32, ptr %20, align 4, !tbaa !112
  %25 = sext i32 %24 to i64
  %26 = tail call fastcc i64 @load_cache_entry_block(ptr noundef %17, ptr noundef %18, i32 noundef %16, i32 noundef %22, ptr noundef %23, i64 noundef %25)
  %27 = load i64, ptr %12, align 8, !tbaa !232
  %28 = add i64 %27, %26
  store i64 %28, ptr %12, align 8, !tbaa !232
  %29 = load ptr, ptr %10, align 8, !tbaa !122
  %.idx = shl nsw i64 %indvars.iv, 3
  %30 = getelementptr i8, ptr %29, i64 8
  %31 = getelementptr i8, ptr %30, i64 %.idx
  %32 = load i32, ptr %31, align 4, !tbaa !114
  %33 = load i32, ptr %9, align 8, !tbaa !120
  %34 = add nsw i32 %33, %32
  store i32 %34, ptr %9, align 8, !tbaa !120
  %indvars.iv.next = add nsw i64 %indvars.iv, 1
  %35 = load i32, ptr %2, align 8, !tbaa !123
  %36 = load i32, ptr %3, align 4, !tbaa !124
  %37 = add nsw i32 %36, %35
  %38 = sext i32 %37 to i64
  %39 = icmp slt i64 %indvars.iv.next, %38
  br i1 %39, label %14, label %._crit_edge, !llvm.loop !233

._crit_edge:                                      ; preds = %14, %1
  ret ptr null
}